target datalayout = "e-m:e-p270:32:32-p271:32:32-p272:64:64-i64:64-i128:128-f80:128-n8:16:32:64-S128"
target triple = "x86_64-unknown-linux-gnu"

%struct.DOEProtocol = type { i16, i8, ptr }

; Function Attrs: nounwind sspstrong uwtable
define dso_local i32 @pcie_doe_build_protocol(ptr noundef %p) #0 {
entry:
  %p.addr = alloca ptr, align 8
  store ptr %p, ptr %p.addr, align 8
  %0 = load ptr, ptr %p.addr, align 8
  %data_obj_type = getelementptr inbounds %struct.DOEProtocol, ptr %0, i32 0, i32 1
  %1 = load i8, ptr %data_obj_type, align 2
  %conv = zext i8 %1 to i32
  %shl = shl i32 %conv, 16
  %2 = load ptr, ptr %p.addr, align 8
  %vendor_id = getelementptr inbounds %struct.DOEProtocol, ptr %2, i32 0, i32 0
  %3 = load i16, ptr %vendor_id, align 8
  %conv1 = zext i16 %3 to i32
  %or = or i32 %shl, %conv1
  ret i32 %or
}