; Function Attrs: mustprogress nofree norecurse nosync nounwind sspstrong willreturn memory(argmem: read) uwtable
define dso_local range(i32 0, 16777216) i32 @pcie_doe_build_protocol(ptr noundef readonly captures(none) %p) local_unnamed_addr #4 {
entry:
  %data_obj_type = getelementptr inbounds nuw i8, ptr %p, i64 2
  %0 = load i8, ptr %data_obj_type, align 2
  %conv = zext i8 %0 to i32
  %shl = shl nuw nsw i32 %conv, 16
  %1 = load i16, ptr %p, align 8
  %conv1 = zext i16 %1 to i32
  %or = or disjoint i32 %shl, %conv1
  ret i32 %or
}